target datalayout = "e-m:e-p270:32:32-p271:32:32-p272:64:64-i64:64-i128:128-f80:128-n8:16:32:64-S128"
target triple = "x86_64-pc-linux-gnu"

%struct._lv_freetype_context_t = type { ptr, %struct.lv_ll_t, ptr, i32, ptr }
%struct.lv_ll_t = type { i32, ptr, ptr }
%struct._lv_freetype_outline_event_param_t = type { ptr, i32, %struct._lv_freetype_outline_vector_t, %struct._lv_freetype_outline_vector_t, %struct._lv_freetype_outline_vector_t, %struct.lv_freetype_outline_sizes_t }
%struct._lv_freetype_outline_vector_t = type { i32, i32 }
%struct.lv_freetype_outline_sizes_t = type { i32, i32 }
%struct.FT_Vector_ = type { i64, i64 }
%struct._lv_event_t = type { ptr, ptr, i32, ptr, ptr, ptr, i8 }

; Function Attrs: nounwind uwtable
define internal i32 @outline_send_event(ptr noundef %0, i32 noundef %1, ptr noundef %2) #0 {
  %4 = alloca i32, align 4
  %5 = alloca ptr, align 8
  %6 = alloca i32, align 4
  %7 = alloca ptr, align 8
  %8 = alloca %struct._lv_event_t, align 8
  store ptr %0, ptr %5, align 8, !tbaa !32
  store i32 %1, ptr %6, align 4, !tbaa !3
  store ptr %2, ptr %7, align 8, !tbaa !94
  %9 = load ptr, ptr %5, align 8, !tbaa !32
  %10 = getelementptr inbounds nuw %struct._lv_freetype_context_t, ptr %9, i32 0, i32 2
  %11 = load ptr, ptr %10, align 8, !tbaa !47
  %12 = icmp ne ptr %11, null
  br i1 %12, label %16, label %13

13:                                               ; preds = %3
  br label %14

14:                                               ; preds = %13
  br label %15

15:                                               ; preds = %14
  store i32 0, ptr %4, align 4
  br label %25

16:                                               ; preds = %3
  call void @llvm.lifetime.start.p0(i64 56, ptr %8) #5
  call void @lv_memzero(ptr noundef %8, i64 noundef 56)
  %17 = load i32, ptr %6, align 4, !tbaa !3
  %18 = getelementptr inbounds nuw %struct._lv_event_t, ptr %8, i32 0, i32 2
  store i32 %17, ptr %18, align 8, !tbaa !96
  %19 = load ptr, ptr %7, align 8, !tbaa !94
  %20 = getelementptr inbounds nuw %struct._lv_event_t, ptr %8, i32 0, i32 4
  store ptr %19, ptr %20, align 8, !tbaa !99
  %21 = getelementptr inbounds nuw %struct._lv_event_t, ptr %8, i32 0, i32 3
  store ptr null, ptr %21, align 8, !tbaa !100
  %22 = load ptr, ptr %5, align 8, !tbaa !32
  %23 = getelementptr inbounds nuw %struct._lv_freetype_context_t, ptr %22, i32 0, i32 2
  %24 = load ptr, ptr %23, align 8, !tbaa !47
  call void %24(ptr noundef %8)
  store i32 1, ptr %4, align 4
  call void @llvm.lifetime.end.p0(i64 56, ptr %8) #5
  br label %25

25:                                               ; preds = %16, %15
  %26 = load i32, ptr %4, align 4
  ret i32 %26
}

; Function Attrs: nounwind uwtable
define internal void @ft_vector_to_lv_vector(ptr noundef %0, ptr noundef %1) #0 {
  %3 = alloca ptr, align 8
  %4 = alloca ptr, align 8
  store ptr %0, ptr %3, align 8, !tbaa !102
  store ptr %1, ptr %4, align 8, !tbaa !92
  %5 = load ptr, ptr %4, align 8, !tbaa !92
  %6 = icmp ne ptr %5, null
  br i1 %6, label %7, label %11

7:                                                ; preds = %2
  %8 = load ptr, ptr %4, align 8, !tbaa !92
  %9 = getelementptr inbounds nuw %struct.FT_Vector_, ptr %8, i32 0, i32 0
  %10 = load i64, ptr %9, align 8, !tbaa !104
  br label %12

11:                                               ; preds = %2
  br label %12

12:                                               ; preds = %11, %7
  %13 = phi i64 [ %10, %7 ], [ 0, %11 ]
  %14 = trunc i64 %13 to i32
  %15 = load ptr, ptr %3, align 8, !tbaa !102
  %16 = getelementptr inbounds nuw %struct._lv_freetype_outline_vector_t, ptr %15, i32 0, i32 0
  store i32 %14, ptr %16, align 4, !tbaa !105
  %17 = load ptr, ptr %4, align 8, !tbaa !92
  %18 = icmp ne ptr %17, null
  br i1 %18, label %19, label %23

19:                                               ; preds = %12
  %20 = load ptr, ptr %4, align 8, !tbaa !92
  %21 = getelementptr inbounds nuw %struct.FT_Vector_, ptr %20, i32 0, i32 1
  %22 = load i64, ptr %21, align 8, !tbaa !106
  br label %24

23:                                               ; preds = %12
  br label %24

24:                                               ; preds = %23, %19
  %25 = phi i64 [ %22, %19 ], [ 0, %23 ]
  %26 = trunc i64 %25 to i32
  %27 = load ptr, ptr %3, align 8, !tbaa !102
  %28 = getelementptr inbounds nuw %struct._lv_freetype_outline_vector_t, ptr %27, i32 0, i32 1
  store i32 %26, ptr %28, align 4, !tbaa !107
  ret void
}

; Function Attrs: inlinehint nounwind uwtable
define internal void @lv_memzero(ptr noundef %0, i64 noundef %1) #4 {
  %3 = alloca ptr, align 8
  %4 = alloca i64, align 8
  store ptr %0, ptr %3, align 8, !tbaa !30
  store i64 %1, ptr %4, align 8, !tbaa !93
  %5 = load ptr, ptr %3, align 8, !tbaa !30
  %6 = load i64, ptr %4, align 8, !tbaa !93
  call void @lv_memset(ptr noundef %5, i8 noundef zeroext 0, i64 noundef %6)
  ret void
}

; Function Attrs: nounwind uwtable
define internal i32 @outline_push_point(ptr noundef %0, i32 noundef %1, ptr noundef %2, ptr noundef %3, ptr noundef %4) #0 {
  %6 = alloca ptr, align 8
  %7 = alloca i32, align 4
  %8 = alloca ptr, align 8
  %9 = alloca ptr, align 8
  %10 = alloca ptr, align 8
  %11 = alloca ptr, align 8
  %12 = alloca %struct._lv_freetype_outline_event_param_t, align 8
  store ptr %0, ptr %6, align 8, !tbaa !30
  store i32 %1, ptr %7, align 4, !tbaa !3
  store ptr %2, ptr %8, align 8, !tbaa !92
  store ptr %3, ptr %9, align 8, !tbaa !92
  store ptr %4, ptr %10, align 8, !tbaa !92
  call void @llvm.lifetime.start.p0(i64 8, ptr %11) #5
  %13 = call ptr @lv_freetype_get_context()
  store ptr %13, ptr %11, align 8, !tbaa !32
  call void @llvm.lifetime.start.p0(i64 48, ptr %12) #5
  call void @lv_memzero(ptr noundef %12, i64 noundef 48)
  %14 = load ptr, ptr %6, align 8, !tbaa !30
  %15 = getelementptr inbounds nuw %struct._lv_freetype_outline_event_param_t, ptr %12, i32 0, i32 0
  store ptr %14, ptr %15, align 8, !tbaa !91
  %16 = load i32, ptr %7, align 4, !tbaa !3
  %17 = getelementptr inbounds nuw %struct._lv_freetype_outline_event_param_t, ptr %12, i32 0, i32 1
  store i32 %16, ptr %17, align 8, !tbaa !101
  %18 = getelementptr inbounds nuw %struct._lv_freetype_outline_event_param_t, ptr %12, i32 0, i32 3
  %19 = load ptr, ptr %8, align 8, !tbaa !92
  call void @ft_vector_to_lv_vector(ptr noundef %18, ptr noundef %19)
  %20 = getelementptr inbounds nuw %struct._lv_freetype_outline_event_param_t, ptr %12, i32 0, i32 4
  %21 = load ptr, ptr %9, align 8, !tbaa !92
  call void @ft_vector_to_lv_vector(ptr noundef %20, ptr noundef %21)
  %22 = getelementptr inbounds nuw %struct._lv_freetype_outline_event_param_t, ptr %12, i32 0, i32 2
  %23 = load ptr, ptr %10, align 8, !tbaa !92
  call void @ft_vector_to_lv_vector(ptr noundef %22, ptr noundef %23)
  %24 = load ptr, ptr %11, align 8, !tbaa !32
  %25 = call i32 @outline_send_event(ptr noundef %24, i32 noundef 36, ptr noundef %12)
  call void @llvm.lifetime.end.p0(i64 48, ptr %12) #5
  call void @llvm.lifetime.end.p0(i64 8, ptr %11) #5
  ret i32 %25
}

; Function Attrs: nounwind uwtable
define internal i32 @outline_move_to_cb(ptr noundef %0, ptr noundef %1) #0 {
  %3 = alloca ptr, align 8
  %4 = alloca ptr, align 8
  %5 = alloca ptr, align 8
  store ptr %0, ptr %3, align 8, !tbaa !92
  store ptr %1, ptr %4, align 8, !tbaa !30
  call void @llvm.lifetime.start.p0(i64 8, ptr %5) #5
  %6 = load ptr, ptr %4, align 8, !tbaa !30
  store ptr %6, ptr %5, align 8, !tbaa !30
  %7 = load ptr, ptr %5, align 8, !tbaa !30
  %8 = load ptr, ptr %3, align 8, !tbaa !92
  %9 = call i32 @outline_push_point(ptr noundef %7, i32 noundef 1, ptr noundef null, ptr noundef null, ptr noundef %8)
  call void @llvm.lifetime.end.p0(i64 8, ptr %5) #5
  ret i32 0
}